; ModuleID = '39/956.c'
source_filename = "39/956.c"
target datalayout = "e-m:e-p270:32:32-p271:32:32-p272:64:64-i64:64-f80:128-n8:16:32:64-S128"
target triple = "x86_64-pc-linux-gnu"

%struct.stu = type { [20 x i8], i32, i32, i8, i8, i32, i32 }

@.str = private unnamed_addr constant [3 x i8] c"%d\00", align 1
@.str.1 = private unnamed_addr constant [3 x i8] c"%s\00", align 1
@.str.2 = private unnamed_addr constant [15 x i8] c"%d %d %c %c %d\00", align 1
@.str.3 = private unnamed_addr constant [9 x i8] c"%s\0A%d\0A%d\00", align 1

; Function Attrs: noinline nounwind uwtable
define dso_local i32 @main() #0 {
  %1 = alloca i32, align 4
  %2 = alloca i32, align 4
  %3 = alloca i32, align 4
  %4 = alloca i32, align 4
  %5 = alloca i32, align 4
  %6 = alloca [100 x %struct.stu], align 16
  %7 = alloca %struct.stu, align 4
  store i32 0, i32* %1, align 4
  store i32 0, i32* %4, align 4
  store i32 0, i32* %5, align 4
  %8 = call i32 (i8*, ...) @__isoc99_scanf(i8* getelementptr inbounds ([3 x i8], [3 x i8]* @.str, i64 0, i64 0), i32* %2)
  store i32 0, i32* %3, align 4
  br label %9

9:                                                ; preds = %176, %0
  %10 = load i32, i32* %3, align 4
  %11 = load i32, i32* %2, align 4
  %12 = icmp slt i32 %10, %11
  br i1 %12, label %13, label %179

13:                                               ; preds = %9
  %14 = load i32, i32* %3, align 4
  %15 = sext i32 %14 to i64
  %16 = getelementptr inbounds [100 x %struct.stu], [100 x %struct.stu]* %6, i64 0, i64 %15
  %17 = getelementptr inbounds %struct.stu, %struct.stu* %16, i32 0, i32 0
  %18 = getelementptr inbounds [20 x i8], [20 x i8]* %17, i64 0, i64 0
  %19 = call i32 (i8*, ...) @__isoc99_scanf(i8* getelementptr inbounds ([3 x i8], [3 x i8]* @.str.1, i64 0, i64 0), i8* %18)
  %20 = call i32 @getchar()
  %21 = load i32, i32* %3, align 4
  %22 = sext i32 %21 to i64
  %23 = getelementptr inbounds [100 x %struct.stu], [100 x %struct.stu]* %6, i64 0, i64 %22
  %24 = getelementptr inbounds %struct.stu, %struct.stu* %23, i32 0, i32 1
  %25 = load i32, i32* %3, align 4
  %26 = sext i32 %25 to i64
  %27 = getelementptr inbounds [100 x %struct.stu], [100 x %struct.stu]* %6, i64 0, i64 %26
  %28 = getelementptr inbounds %struct.stu, %struct.stu* %27, i32 0, i32 2
  %29 = load i32, i32* %3, align 4
  %30 = sext i32 %29 to i64
  %31 = getelementptr inbounds [100 x %struct.stu], [100 x %struct.stu]* %6, i64 0, i64 %30
  %32 = getelementptr inbounds %struct.stu, %struct.stu* %31, i32 0, i32 3
  %33 = load i32, i32* %3, align 4
  %34 = sext i32 %33 to i64
  %35 = getelementptr inbounds [100 x %struct.stu], [100 x %struct.stu]* %6, i64 0, i64 %34
  %36 = getelementptr inbounds %struct.stu, %struct.stu* %35, i32 0, i32 4
  %37 = load i32, i32* %3, align 4
  %38 = sext i32 %37 to i64
  %39 = getelementptr inbounds [100 x %struct.stu], [100 x %struct.stu]* %6, i64 0, i64 %38
  %40 = getelementptr inbounds %struct.stu, %struct.stu* %39, i32 0, i32 5
  %41 = call i32 (i8*, ...) @__isoc99_scanf(i8* getelementptr inbounds ([15 x i8], [15 x i8]* @.str.2, i64 0, i64 0), i32* %24, i32* %28, i8* %32, i8* %36, i32* %40)
  %42 = load i32, i32* %3, align 4
  %43 = sext i32 %42 to i64
  %44 = getelementptr inbounds [100 x %struct.stu], [100 x %struct.stu]* %6, i64 0, i64 %43
  %45 = getelementptr inbounds %struct.stu, %struct.stu* %44, i32 0, i32 6
  store i32 0, i32* %45, align 4
  %46 = load i32, i32* %3, align 4
  %47 = sext i32 %46 to i64
  %48 = getelementptr inbounds [100 x %struct.stu], [100 x %struct.stu]* %6, i64 0, i64 %47
  %49 = getelementptr inbounds %struct.stu, %struct.stu* %48, i32 0, i32 1
  %50 = load i32, i32* %49, align 4
  %51 = icmp sgt i32 %50, 80
  br i1 %51, label %52, label %70

52:                                               ; preds = %13
  %53 = load i32, i32* %3, align 4
  %54 = sext i32 %53 to i64
  %55 = getelementptr inbounds [100 x %struct.stu], [100 x %struct.stu]* %6, i64 0, i64 %54
  %56 = getelementptr inbounds %struct.stu, %struct.stu* %55, i32 0, i32 5
  %57 = load i32, i32* %56, align 8
  %58 = icmp sgt i32 %57, 0
  br i1 %58, label %59, label %70

59:                                               ; preds = %52
  %60 = load i32, i32* %3, align 4
  %61 = sext i32 %60 to i64
  %62 = getelementptr inbounds [100 x %struct.stu], [100 x %struct.stu]* %6, i64 0, i64 %61
  %63 = getelementptr inbounds %struct.stu, %struct.stu* %62, i32 0, i32 6
  %64 = load i32, i32* %63, align 4
  %65 = add nsw i32 %64, 8000
  %66 = load i32, i32* %3, align 4
  %67 = sext i32 %66 to i64
  %68 = getelementptr inbounds [100 x %struct.stu], [100 x %struct.stu]* %6, i64 0, i64 %67
  %69 = getelementptr inbounds %struct.stu, %struct.stu* %68, i32 0, i32 6
  store i32 %65, i32* %69, align 4
  br label %70

70:                                               ; preds = %59, %52, %13
  %71 = load i32, i32* %3, align 4
  %72 = sext i32 %71 to i64
  %73 = getelementptr inbounds [100 x %struct.stu], [100 x %struct.stu]* %6, i64 0, i64 %72
  %74 = getelementptr inbounds %struct.stu, %struct.stu* %73, i32 0, i32 1
  %75 = load i32, i32* %74, align 4
  %76 = icmp sgt i32 %75, 85
  br i1 %76, label %77, label %91

77:                                               ; preds = %70
  %78 = load i32, i32* %3, align 4
  %79 = sext i32 %78 to i64
  %80 = getelementptr inbounds [100 x %struct.stu], [100 x %struct.stu]* %6, i64 0, i64 %79
  %81 = getelementptr inbounds %struct.stu, %struct.stu* %80, i32 0, i32 2
  %82 = load i32, i32* %81, align 8
  %83 = icmp sgt i32 %82, 80
  br i1 %83, label %84, label %91

84:                                               ; preds = %77
  %85 = load i32, i32* %3, align 4
  %86 = sext i32 %85 to i64
  %87 = getelementptr inbounds [100 x %struct.stu], [100 x %struct.stu]* %6, i64 0, i64 %86
  %88 = getelementptr inbounds %struct.stu, %struct.stu* %87, i32 0, i32 6
  %89 = load i32, i32* %88, align 4
  %90 = add nsw i32 %89, 4000
  store i32 %90, i32* %88, align 4
  br label %91

91:                                               ; preds = %84, %77, %70
  %92 = load i32, i32* %3, align 4
  %93 = sext i32 %92 to i64
  %94 = getelementptr inbounds [100 x %struct.stu], [100 x %struct.stu]* %6, i64 0, i64 %93
  %95 = getelementptr inbounds %struct.stu, %struct.stu* %94, i32 0, i32 1
  %96 = load i32, i32* %95, align 4
  %97 = icmp sgt i32 %96, 90
  br i1 %97, label %98, label %105

98:                                               ; preds = %91
  %99 = load i32, i32* %3, align 4
  %100 = sext i32 %99 to i64
  %101 = getelementptr inbounds [100 x %struct.stu], [100 x %struct.stu]* %6, i64 0, i64 %100
  %102 = getelementptr inbounds %struct.stu, %struct.stu* %101, i32 0, i32 6
  %103 = load i32, i32* %102, align 4
  %104 = add nsw i32 %103, 2000
  store i32 %104, i32* %102, align 4
  br label %105

105:                                              ; preds = %98, %91
  %106 = load i32, i32* %3, align 4
  %107 = sext i32 %106 to i64
  %108 = getelementptr inbounds [100 x %struct.stu], [100 x %struct.stu]* %6, i64 0, i64 %107
  %109 = getelementptr inbounds %struct.stu, %struct.stu* %108, i32 0, i32 1
  %110 = load i32, i32* %109, align 4
  %111 = icmp sgt i32 %110, 85
  br i1 %111, label %112, label %127

112:                                              ; preds = %105
  %113 = load i32, i32* %3, align 4
  %114 = sext i32 %113 to i64
  %115 = getelementptr inbounds [100 x %struct.stu], [100 x %struct.stu]* %6, i64 0, i64 %114
  %116 = getelementptr inbounds %struct.stu, %struct.stu* %115, i32 0, i32 4
  %117 = load i8, i8* %116, align 1
  %118 = sext i8 %117 to i32
  %119 = icmp eq i32 %118, 89
  br i1 %119, label %120, label %127

120:                                              ; preds = %112
  %121 = load i32, i32* %3, align 4
  %122 = sext i32 %121 to i64
  %123 = getelementptr inbounds [100 x %struct.stu], [100 x %struct.stu]* %6, i64 0, i64 %122
  %124 = getelementptr inbounds %struct.stu, %struct.stu* %123, i32 0, i32 6
  %125 = load i32, i32* %124, align 4
  %126 = add nsw i32 %125, 1000
  store i32 %126, i32* %124, align 4
  br label %127

127:                                              ; preds = %120, %112, %105
  %128 = load i32, i32* %3, align 4
  %129 = sext i32 %128 to i64
  %130 = getelementptr inbounds [100 x %struct.stu], [100 x %struct.stu]* %6, i64 0, i64 %129
  %131 = getelementptr inbounds %struct.stu, %struct.stu* %130, i32 0, i32 2
  %132 = load i32, i32* %131, align 8
  %133 = icmp sgt i32 %132, 80
  br i1 %133, label %134, label %149

134:                                              ; preds = %127
  %135 = load i32, i32* %3, align 4
  %136 = sext i32 %135 to i64
  %137 = getelementptr inbounds [100 x %struct.stu], [100 x %struct.stu]* %6, i64 0, i64 %136
  %138 = getelementptr inbounds %struct.stu, %struct.stu* %137, i32 0, i32 3
  %139 = load i8, i8* %138, align 4
  %140 = sext i8 %139 to i32
  %141 = icmp eq i32 %140, 89
  br i1 %141, label %142, label %149

142:                                              ; preds = %134
  %143 = load i32, i32* %3, align 4
  %144 = sext i32 %143 to i64
  %145 = getelementptr inbounds [100 x %struct.stu], [100 x %struct.stu]* %6, i64 0, i64 %144
  %146 = getelementptr inbounds %struct.stu, %struct.stu* %145, i32 0, i32 6
  %147 = load i32, i32* %146, align 4
  %148 = add nsw i32 %147, 850
  store i32 %148, i32* %146, align 4
  br label %149

149:                                              ; preds = %142, %134, %127
  %150 = load i32, i32* %3, align 4
  %151 = sext i32 %150 to i64
  %152 = getelementptr inbounds [100 x %struct.stu], [100 x %struct.stu]* %6, i64 0, i64 %151
  %153 = getelementptr inbounds %struct.stu, %struct.stu* %152, i32 0, i32 6
  %154 = load i32, i32* %153, align 4
  %155 = load i32, i32* %5, align 4
  %156 = add nsw i32 %155, %154
  store i32 %156, i32* %5, align 4
  %157 = load i32, i32* %3, align 4
  %158 = sext i32 %157 to i64
  %159 = getelementptr inbounds [100 x %struct.stu], [100 x %struct.stu]* %6, i64 0, i64 %158
  %160 = getelementptr inbounds %struct.stu, %struct.stu* %159, i32 0, i32 6
  %161 = load i32, i32* %160, align 4
  %162 = load i32, i32* %4, align 4
  %163 = icmp sgt i32 %161, %162
  br i1 %163, label %164, label %175

164:                                              ; preds = %149
  %165 = load i32, i32* %3, align 4
  %166 = sext i32 %165 to i64
  %167 = getelementptr inbounds [100 x %struct.stu], [100 x %struct.stu]* %6, i64 0, i64 %166
  %168 = getelementptr inbounds %struct.stu, %struct.stu* %167, i32 0, i32 6
  %169 = load i32, i32* %168, align 4
  store i32 %169, i32* %4, align 4
  %170 = load i32, i32* %3, align 4
  %171 = sext i32 %170 to i64
  %172 = getelementptr inbounds [100 x %struct.stu], [100 x %struct.stu]* %6, i64 0, i64 %171
  %173 = bitcast %struct.stu* %7 to i8*
  %174 = bitcast %struct.stu* %172 to i8*
  call void @llvm.memcpy.p0i8.p0i8.i64(i8* align 4 %173, i8* align 8 %174, i64 40, i1 false)
  br label %175

175:                                              ; preds = %164, %149
  br label %176

176:                                              ; preds = %175
  %177 = load i32, i32* %3, align 4
  %178 = add nsw i32 %177, 1
  store i32 %178, i32* %3, align 4
  br label %9

179:                                              ; preds = %9
  %180 = getelementptr inbounds %struct.stu, %struct.stu* %7, i32 0, i32 0
  %181 = getelementptr inbounds [20 x i8], [20 x i8]* %180, i64 0, i64 0
  %182 = load i32, i32* %4, align 4
  %183 = load i32, i32* %5, align 4
  %184 = call i32 (i8*, ...) @printf(i8* getelementptr inbounds ([9 x i8], [9 x i8]* @.str.3, i64 0, i64 0), i8* %181, i32 %182, i32 %183)
  ret i32 0
}

declare dso_local i32 @__isoc99_scanf(i8*, ...) #1

declare dso_local i32 @getchar() #1

; Function Attrs: argmemonly nounwind willreturn
declare void @llvm.memcpy.p0i8.p0i8.i64(i8* noalias nocapture writeonly, i8* noalias nocapture readonly, i64, i1 immarg) #2

declare dso_local i32 @printf(i8*, ...) #1


!llvm.module.flags = !{!0}
!llvm.ident = !{!1}

!0 = !{i32 1, !"wchar_size", i32 4}
!1 = !{!"clang version 10.0.0-4ubuntu1 "}
